target datalayout = "e-m:e-p270:32:32-p271:32:32-p272:64:64-i64:64-i128:128-f80:128-n8:16:32:64-S128"
target triple = "x86_64-pc-linux-gnu"

; Function Attrs: nounwind uwtable
define hidden void @timelib_decimal_hour_to_hms(double noundef %0, ptr noundef %1, ptr noundef %2, ptr noundef %3) #0 {
  %5 = alloca double, align 8
  %6 = alloca ptr, align 8
  %7 = alloca ptr, align 8
  %8 = alloca ptr, align 8
  %9 = alloca i8, align 1
  %10 = alloca i32, align 4
  store double %0, ptr %5, align 8
  store ptr %1, ptr %6, align 8
  store ptr %2, ptr %7, align 8
  store ptr %3, ptr %8, align 8
  store i8 0, ptr %9, align 1
  %11 = load double, ptr %5, align 8
  %12 = fcmp olt double %11, 0.000000e+00
  br i1 %12, label %13, label %16

13:                                               ; preds = %4
  store i8 1, ptr %9, align 1
  %14 = load double, ptr %5, align 8
  %15 = call double @llvm.fabs.f64(double %14)
  store double %15, ptr %5, align 8
  br label %16

16:                                               ; preds = %13, %4
  %17 = load double, ptr %5, align 8
  %18 = call double @llvm.floor.f64(double %17)
  %19 = fptosi double %18 to i32
  %20 = load ptr, ptr %6, align 8
  store i32 %19, ptr %20, align 4
  %21 = load double, ptr %5, align 8
  %22 = load ptr, ptr %6, align 8
  %23 = load i32, ptr %22, align 4
  %24 = sitofp i32 %23 to double
  %25 = fsub double %21, %24
  %26 = fmul double %25, 3.600000e+03
  %27 = call double @llvm.floor.f64(double %26)
  %28 = fptosi double %27 to i32
  store i32 %28, ptr %10, align 4
  %29 = load i32, ptr %10, align 4
  %30 = sdiv i32 %29, 60
  %31 = load ptr, ptr %7, align 8
  store i32 %30, ptr %31, align 4
  %32 = load i32, ptr %10, align 4
  %33 = srem i32 %32, 60
  %34 = load ptr, ptr %8, align 8
  store i32 %33, ptr %34, align 4
  %35 = load i8, ptr %9, align 1
  %36 = trunc i8 %35 to i1
  br i1 %36, label %37, label %42

37:                                               ; preds = %16
  %38 = load ptr, ptr %6, align 8
  %39 = load i32, ptr %38, align 4
  %40 = sub nsw i32 0, %39
  %41 = load ptr, ptr %6, align 8
  store i32 %40, ptr %41, align 4
  br label %42

42:                                               ; preds = %37, %16
  ret void
}