; Function Attrs: mustprogress nofree norecurse nosync nounwind willreturn memory(argmem: readwrite) uwtable
define hidden void @timelib_decimal_hour_to_hms(double noundef %0, ptr nocapture noundef %1, ptr nocapture noundef writeonly %2, ptr nocapture noundef writeonly %3) local_unnamed_addr #8 {
  %5 = fcmp olt double %0, 0.000000e+00
  %6 = tail call double @llvm.fabs.f64(double %0)
  %.0 = select i1 %5, double %6, double %0
  %7 = tail call double @llvm.floor.f64(double %.0)
  %8 = fptosi double %7 to i32
  store i32 %8, ptr %1, align 4
  %9 = sitofp i32 %8 to double
  %10 = fsub double %.0, %9
  %11 = fmul double %10, 3.600000e+03
  %12 = tail call double @llvm.floor.f64(double %11)
  %13 = fptosi double %12 to i32
  %14 = sdiv i32 %13, 60
  store i32 %14, ptr %2, align 4
  %15 = srem i32 %13, 60
  store i32 %15, ptr %3, align 4
  br i1 %5, label %16, label %19

16:                                               ; preds = %4
  %17 = load i32, ptr %1, align 4
  %18 = sub nsw i32 0, %17
  store i32 %18, ptr %1, align 4
  br label %19

19:                                               ; preds = %16, %4
  ret void
}